target datalayout = "e-m:e-p270:32:32-p271:32:32-p272:64:64-i64:64-i128:128-f80:128-n8:16:32:64-S128"
target triple = "x86_64-pc-linux-gnu"

%struct._variable = type { ptr, ptr, ptr, ptr, ptr }

@.str.14 = private unnamed_addr constant [64 x i8] c"ABCDEFGHIJKLMNOPQRSTUVWXYZabcdefghijklmnopqrstuvwxyz_0123456789\00", align 1

; Function Attrs: nounwind uwtable
define internal zeroext i1 @valid_variable_name(ptr noundef %0) #0 {
  %2 = alloca i1, align 1
  %3 = alloca ptr, align 8
  %4 = alloca ptr, align 8
  %5 = alloca i32, align 4
  store ptr %0, ptr %3, align 8
  call void @llvm.lifetime.start.p0(i64 8, ptr %4) #6
  %6 = load ptr, ptr %3, align 8
  store ptr %6, ptr %4, align 8
  %7 = load ptr, ptr %4, align 8
  %8 = load i8, ptr %7, align 1
  %9 = zext i8 %8 to i32
  %10 = icmp eq i32 %9, 0
  br i1 %10, label %11, label %12

11:                                               ; preds = %1
  store i1 false, ptr %2, align 1
  store i32 1, ptr %5, align 4
  br label %35

12:                                               ; preds = %1
  br label %13

13:                                               ; preds = %33, %12
  %14 = load ptr, ptr %4, align 8
  %15 = load i8, ptr %14, align 1
  %16 = icmp ne i8 %15, 0
  br i1 %16, label %17, label %34

17:                                               ; preds = %13
  %18 = load ptr, ptr %4, align 8
  %19 = load i8, ptr %18, align 1
  %20 = zext i8 %19 to i32
  %21 = and i32 %20, 128
  %22 = icmp ne i32 %21, 0
  br i1 %22, label %29, label %23

23:                                               ; preds = %17
  %24 = load ptr, ptr %4, align 8
  %25 = load i8, ptr %24, align 1
  %26 = zext i8 %25 to i32
  %27 = call ptr @strchr(ptr noundef @.str.14, i32 noundef %26) #7
  %28 = icmp ne ptr %27, null
  br i1 %28, label %29, label %32

29:                                               ; preds = %23, %17
  %30 = load ptr, ptr %4, align 8
  %31 = getelementptr inbounds nuw i8, ptr %30, i32 1
  store ptr %31, ptr %4, align 8
  br label %33

32:                                               ; preds = %23
  store i1 false, ptr %2, align 1
  store i32 1, ptr %5, align 4
  br label %35

33:                                               ; preds = %29
  br label %13, !llvm.loop !10

34:                                               ; preds = %13
  store i1 true, ptr %2, align 1
  store i32 1, ptr %5, align 4
  br label %35

35:                                               ; preds = %34, %32, %11
  call void @llvm.lifetime.end.p0(i64 8, ptr %4) #6
  %36 = load i1, ptr %2, align 1
  ret i1 %36
}

; Function Attrs: nounwind uwtable
define dso_local void @SetVariableHooks(ptr noundef %0, ptr noundef %1, ptr noundef %2, ptr noundef %3) #0 {
  %5 = alloca ptr, align 8
  %6 = alloca ptr, align 8
  %7 = alloca ptr, align 8
  %8 = alloca ptr, align 8
  %9 = alloca ptr, align 8
  %10 = alloca ptr, align 8
  %11 = alloca i32, align 4
  %12 = alloca i32, align 4
  store ptr %0, ptr %5, align 8
  store ptr %1, ptr %6, align 8
  store ptr %2, ptr %7, align 8
  store ptr %3, ptr %8, align 8
  call void @llvm.lifetime.start.p0(i64 8, ptr %9) #6
  call void @llvm.lifetime.start.p0(i64 8, ptr %10) #6
  %13 = load ptr, ptr %5, align 8
  %14 = icmp ne ptr %13, null
  br i1 %14, label %15, label %18

15:                                               ; preds = %4
  %16 = load ptr, ptr %6, align 8
  %17 = icmp ne ptr %16, null
  br i1 %17, label %19, label %18

18:                                               ; preds = %15, %4
  store i32 1, ptr %11, align 4
  br label %121

19:                                               ; preds = %15
  %20 = load ptr, ptr %6, align 8
  %21 = call zeroext i1 @valid_variable_name(ptr noundef %20)
  br i1 %21, label %23, label %22

22:                                               ; preds = %19
  store i32 1, ptr %11, align 4
  br label %121

23:                                               ; preds = %19
  %24 = load ptr, ptr %5, align 8
  store ptr %24, ptr %10, align 8
  %25 = load ptr, ptr %5, align 8
  %26 = getelementptr inbounds nuw %struct._variable, ptr %25, i32 0, i32 4
  %27 = load ptr, ptr %26, align 8
  store ptr %27, ptr %9, align 8
  br label %28

28:                                               ; preds = %74, %23
  %29 = load ptr, ptr %9, align 8
  %30 = icmp ne ptr %29, null
  br i1 %30, label %31, label %79

31:                                               ; preds = %28
  call void @llvm.lifetime.start.p0(i64 4, ptr %12) #6
  %32 = load ptr, ptr %9, align 8
  %33 = getelementptr inbounds nuw %struct._variable, ptr %32, i32 0, i32 0
  %34 = load ptr, ptr %33, align 8
  %35 = load ptr, ptr %6, align 8
  %36 = call i32 @strcmp(ptr noundef %34, ptr noundef %35) #7
  store i32 %36, ptr %12, align 4
  %37 = load i32, ptr %12, align 4
  %38 = icmp eq i32 %37, 0
  br i1 %38, label %39, label %66

39:                                               ; preds = %31
  %40 = load ptr, ptr %7, align 8
  %41 = load ptr, ptr %9, align 8
  %42 = getelementptr inbounds nuw %struct._variable, ptr %41, i32 0, i32 2
  store ptr %40, ptr %42, align 8
  %43 = load ptr, ptr %8, align 8
  %44 = load ptr, ptr %9, align 8
  %45 = getelementptr inbounds nuw %struct._variable, ptr %44, i32 0, i32 3
  store ptr %43, ptr %45, align 8
  %46 = load ptr, ptr %7, align 8
  %47 = icmp ne ptr %46, null
  br i1 %47, label %48, label %56

48:                                               ; preds = %39
  %49 = load ptr, ptr %7, align 8
  %50 = load ptr, ptr %9, align 8
  %51 = getelementptr inbounds nuw %struct._variable, ptr %50, i32 0, i32 1
  %52 = load ptr, ptr %51, align 8
  %53 = call ptr %49(ptr noundef %52)
  %54 = load ptr, ptr %9, align 8
  %55 = getelementptr inbounds nuw %struct._variable, ptr %54, i32 0, i32 1
  store ptr %53, ptr %55, align 8
  br label %56

56:                                               ; preds = %48, %39
  %57 = load ptr, ptr %8, align 8
  %58 = icmp ne ptr %57, null
  br i1 %58, label %59, label %65

59:                                               ; preds = %56
  %60 = load ptr, ptr %8, align 8
  %61 = load ptr, ptr %9, align 8
  %62 = getelementptr inbounds nuw %struct._variable, ptr %61, i32 0, i32 1
  %63 = load ptr, ptr %62, align 8
  %64 = call zeroext i1 %60(ptr noundef %63)
  br label %65

65:                                               ; preds = %59, %56
  store i32 1, ptr %11, align 4
  br label %71

66:                                               ; preds = %31
  %67 = load i32, ptr %12, align 4
  %68 = icmp sgt i32 %67, 0
  br i1 %68, label %69, label %70

69:                                               ; preds = %66
  store i32 2, ptr %11, align 4
  br label %71

70:                                               ; preds = %66
  store i32 0, ptr %11, align 4
  br label %71

71:                                               ; preds = %70, %69, %65
  call void @llvm.lifetime.end.p0(i64 4, ptr %12) #6
  %72 = load i32, ptr %11, align 4
  switch i32 %72, label %121 [
    i32 0, label %73
    i32 2, label %79
  ]

73:                                               ; preds = %71
  br label %74

74:                                               ; preds = %73
  %75 = load ptr, ptr %9, align 8
  store ptr %75, ptr %10, align 8
  %76 = load ptr, ptr %9, align 8
  %77 = getelementptr inbounds nuw %struct._variable, ptr %76, i32 0, i32 4
  %78 = load ptr, ptr %77, align 8
  store ptr %78, ptr %9, align 8
  br label %28, !llvm.loop !11

79:                                               ; preds = %71, %28
  %80 = call ptr @pg_malloc(i64 noundef 40)
  store ptr %80, ptr %9, align 8
  %81 = load ptr, ptr %6, align 8
  %82 = call ptr @pg_strdup(ptr noundef %81)
  %83 = load ptr, ptr %9, align 8
  %84 = getelementptr inbounds nuw %struct._variable, ptr %83, i32 0, i32 0
  store ptr %82, ptr %84, align 8
  %85 = load ptr, ptr %9, align 8
  %86 = getelementptr inbounds nuw %struct._variable, ptr %85, i32 0, i32 1
  store ptr null, ptr %86, align 8
  %87 = load ptr, ptr %7, align 8
  %88 = load ptr, ptr %9, align 8
  %89 = getelementptr inbounds nuw %struct._variable, ptr %88, i32 0, i32 2
  store ptr %87, ptr %89, align 8
  %90 = load ptr, ptr %8, align 8
  %91 = load ptr, ptr %9, align 8
  %92 = getelementptr inbounds nuw %struct._variable, ptr %91, i32 0, i32 3
  store ptr %90, ptr %92, align 8
  %93 = load ptr, ptr %10, align 8
  %94 = getelementptr inbounds nuw %struct._variable, ptr %93, i32 0, i32 4
  %95 = load ptr, ptr %94, align 8
  %96 = load ptr, ptr %9, align 8
  %97 = getelementptr inbounds nuw %struct._variable, ptr %96, i32 0, i32 4
  store ptr %95, ptr %97, align 8
  %98 = load ptr, ptr %9, align 8
  %99 = load ptr, ptr %10, align 8
  %100 = getelementptr inbounds nuw %struct._variable, ptr %99, i32 0, i32 4
  store ptr %98, ptr %100, align 8
  %101 = load ptr, ptr %7, align 8
  %102 = icmp ne ptr %101, null
  br i1 %102, label %103, label %111

103:                                              ; preds = %79
  %104 = load ptr, ptr %7, align 8
  %105 = load ptr, ptr %9, align 8
  %106 = getelementptr inbounds nuw %struct._variable, ptr %105, i32 0, i32 1
  %107 = load ptr, ptr %106, align 8
  %108 = call ptr %104(ptr noundef %107)
  %109 = load ptr, ptr %9, align 8
  %110 = getelementptr inbounds nuw %struct._variable, ptr %109, i32 0, i32 1
  store ptr %108, ptr %110, align 8
  br label %111

111:                                              ; preds = %103, %79
  %112 = load ptr, ptr %8, align 8
  %113 = icmp ne ptr %112, null
  br i1 %113, label %114, label %120

114:                                              ; preds = %111
  %115 = load ptr, ptr %8, align 8
  %116 = load ptr, ptr %9, align 8
  %117 = getelementptr inbounds nuw %struct._variable, ptr %116, i32 0, i32 1
  %118 = load ptr, ptr %117, align 8
  %119 = call zeroext i1 %115(ptr noundef %118)
  br label %120

120:                                              ; preds = %114, %111
  store i32 0, ptr %11, align 4
  br label %121

121:                                              ; preds = %120, %71, %22, %18
  call void @llvm.lifetime.end.p0(i64 8, ptr %10) #6
  call void @llvm.lifetime.end.p0(i64 8, ptr %9) #6
  %122 = load i32, ptr %11, align 4
  switch i32 %122, label %124 [
    i32 0, label %123
    i32 1, label %123
  ]

123:                                              ; preds = %121, %121
  ret void

124:                                              ; preds = %121
  unreachable
}