; Function Attrs: nounwind uwtable
define dso_local void @SetVariableHooks(ptr noundef captures(address_is_null) %0, ptr noundef %1, ptr noundef %2, ptr noundef %3) local_unnamed_addr #0 {
  %5 = icmp ne ptr %0, null
  %6 = icmp ne ptr %1, null
  %or.cond = and i1 %5, %6
  br i1 %or.cond, label %7, label %valid_variable_name.exit.thread

7:                                                ; preds = %4
  %8 = load i8, ptr %1, align 1
  %9 = icmp eq i8 %8, 0
  br i1 %9, label %valid_variable_name.exit.thread, label %.preheader.i

.preheader.i:                                     ; preds = %7, %13
  %.011.i = phi ptr [ %14, %13 ], [ %1, %7 ]
  %10 = phi i8 [ %.pr.i, %13 ], [ %8, %7 ]
  %.not9.i = icmp sgt i8 %10, -1
  br i1 %.not9.i, label %11, label %13

11:                                               ; preds = %.preheader.i
  %12 = zext nneg i8 %10 to i32
  %memchr.i = tail call ptr @memchr(ptr noundef nonnull dereferenceable(1) @.str.14, i32 %12, i64 64)
  %.not10.i = icmp eq ptr %memchr.i, null
  br i1 %.not10.i, label %valid_variable_name.exit.thread, label %13

13:                                               ; preds = %11, %.preheader.i
  %14 = getelementptr inbounds nuw i8, ptr %.011.i, i64 1
  %.pr.i = load i8, ptr %14, align 1
  %.not.i = icmp eq i8 %.pr.i, 0
  br i1 %.not.i, label %valid_variable_name.exit, label %.preheader.i, !llvm.loop !6

valid_variable_name.exit:                         ; preds = %13, %29
  %.043 = phi ptr [ %.0, %29 ], [ %0, %13 ]
  %.0.in = getelementptr inbounds nuw i8, ptr %.043, i64 32
  %.0 = load ptr, ptr %.0.in, align 8
  %.not = icmp eq ptr %.0, null
  br i1 %.not, label %.thread56, label %15

15:                                               ; preds = %valid_variable_name.exit
  %16 = load ptr, ptr %.0, align 8
  %17 = tail call i32 @strcmp(ptr noundef nonnull dereferenceable(1) %16, ptr noundef nonnull dereferenceable(1) %1) #12
  %18 = icmp eq i32 %17, 0
  br i1 %18, label %19, label %29

19:                                               ; preds = %15
  %20 = getelementptr inbounds nuw i8, ptr %.0, i64 16
  store ptr %2, ptr %20, align 8
  %21 = getelementptr inbounds nuw i8, ptr %.0, i64 24
  store ptr %3, ptr %21, align 8
  %.not50 = icmp eq ptr %2, null
  br i1 %.not50, label %26, label %22

22:                                               ; preds = %19
  %23 = getelementptr inbounds nuw i8, ptr %.0, i64 8
  %24 = load ptr, ptr %23, align 8
  %25 = tail call ptr %2(ptr noundef %24) #11
  store ptr %25, ptr %23, align 8
  br label %26

26:                                               ; preds = %22, %19
  %.not51 = icmp eq ptr %3, null
  br i1 %.not51, label %valid_variable_name.exit.thread, label %27

27:                                               ; preds = %26
  %28 = getelementptr inbounds nuw i8, ptr %.0, i64 8
  br label %valid_variable_name.exit.thread.sink.split

29:                                               ; preds = %15
  %30 = icmp sgt i32 %17, 0
  br i1 %30, label %.thread56, label %valid_variable_name.exit

.thread56:                                        ; preds = %29, %valid_variable_name.exit
  %.0.in.le = getelementptr inbounds nuw i8, ptr %.043, i64 32
  %31 = tail call ptr @pg_malloc(i64 noundef 40) #11
  %32 = tail call ptr @pg_strdup(ptr noundef nonnull %1) #11
  store ptr %32, ptr %31, align 8
  %33 = getelementptr inbounds nuw i8, ptr %31, i64 8
  store ptr null, ptr %33, align 8
  %34 = getelementptr inbounds nuw i8, ptr %31, i64 16
  store ptr %2, ptr %34, align 8
  %35 = getelementptr inbounds nuw i8, ptr %31, i64 24
  store ptr %3, ptr %35, align 8
  %36 = load ptr, ptr %.0.in.le, align 8
  %37 = getelementptr inbounds nuw i8, ptr %31, i64 32
  store ptr %36, ptr %37, align 8
  store ptr %31, ptr %.0.in.le, align 8
  %.not52 = icmp eq ptr %2, null
  br i1 %.not52, label %41, label %38

38:                                               ; preds = %.thread56
  %39 = load ptr, ptr %33, align 8
  %40 = tail call ptr %2(ptr noundef %39) #11
  store ptr %40, ptr %33, align 8
  br label %41

41:                                               ; preds = %38, %.thread56
  %.not53 = icmp eq ptr %3, null
  br i1 %.not53, label %valid_variable_name.exit.thread, label %valid_variable_name.exit.thread.sink.split

valid_variable_name.exit.thread.sink.split:       ; preds = %41, %27
  %.sink.in = phi ptr [ %28, %27 ], [ %33, %41 ]
  %.sink = load ptr, ptr %.sink.in, align 8
  %42 = tail call zeroext i1 %3(ptr noundef %.sink) #11
  br label %valid_variable_name.exit.thread

valid_variable_name.exit.thread:                  ; preds = %11, %valid_variable_name.exit.thread.sink.split, %26, %7, %41, %4
  ret void
}